; Function Attrs: nounwind uwtable
define dso_local noundef ptr @ExecSetupPartitionTupleRouting(ptr noundef captures(none) %0, ptr noundef %1) local_unnamed_addr #0 {
  %3 = tail call ptr @palloc0(i64 noundef 64) #9
  store ptr %1, ptr %3, align 8
  %4 = load ptr, ptr @CurrentMemoryContext, align 8
  %5 = getelementptr inbounds nuw i8, ptr %3, i64 56
  store ptr %4, ptr %5, align 8
  %6 = getelementptr inbounds nuw i8, ptr %1, i64 72
  %7 = load i32, ptr %6, align 8
  %8 = tail call fastcc ptr @ExecInitPartitionDispatchInfo(ptr noundef %0, ptr noundef nonnull %3, i32 noundef %7, ptr noundef null, i32 noundef 0, ptr noundef null)
  ret ptr %3
}